target datalayout = "e-m:e-p270:32:32-p271:32:32-p272:64:64-i64:64-i128:128-f80:128-n8:16:32:64-S128"
target triple = "x86_64-pc-linux-gnu"

@stderr = external global ptr, align 8
@.str.36 = private unnamed_addr constant [5 x i8] c".dat\00", align 1
@.str.37 = private unnamed_addr constant [75 x i8] c"icupkg: \22%s\22 is not recognized as a package filename (must end with .dat)\0A\00", align 1
@.str.38 = private unnamed_addr constant [51 x i8] c"icupkg: the package name \22%s\22 is too long (>=%ld)\0A\00", align 1

; Function Attrs: mustprogress uwtable
define internal void @_ZL18extractPackageNamePKcPci(ptr noundef %0, ptr noundef %1, i32 noundef %2) #0 {
  %4 = alloca ptr, align 8
  %5 = alloca ptr, align 8
  %6 = alloca i32, align 4
  %7 = alloca ptr, align 8
  %8 = alloca i32, align 4
  store ptr %0, ptr %4, align 8, !tbaa !3
  store ptr %1, ptr %5, align 8, !tbaa !3
  store i32 %2, ptr %6, align 4, !tbaa !8
  call void @llvm.lifetime.start.p0(i64 8, ptr %7) #13
  call void @llvm.lifetime.start.p0(i64 4, ptr %8) #13
  %9 = load ptr, ptr %4, align 8, !tbaa !3
  %10 = call ptr @findBasename(ptr noundef %9)
  store ptr %10, ptr %7, align 8, !tbaa !3
  %11 = load ptr, ptr %7, align 8, !tbaa !3
  %12 = call i64 @strlen(ptr noundef %11) #15
  %13 = trunc i64 %12 to i32
  %14 = sub nsw i32 %13, 4
  store i32 %14, ptr %8, align 4, !tbaa !8
  %15 = load i32, ptr %8, align 4, !tbaa !8
  %16 = icmp sle i32 %15, 0
  br i1 %16, label %24, label %17

17:                                               ; preds = %3
  %18 = load ptr, ptr %7, align 8, !tbaa !3
  %19 = load i32, ptr %8, align 4, !tbaa !8
  %20 = sext i32 %19 to i64
  %21 = getelementptr inbounds i8, ptr %18, i64 %20
  %22 = call i32 @strcmp(ptr noundef %21, ptr noundef @.str.36) #15
  %23 = icmp ne i32 0, %22
  br i1 %23, label %24, label %28

24:                                               ; preds = %17, %3
  %25 = load ptr, ptr @stderr, align 8, !tbaa !54
  %26 = load ptr, ptr %7, align 8, !tbaa !3
  %27 = call i32 (ptr, ptr, ...) @fprintf(ptr noundef %25, ptr noundef @.str.37, ptr noundef %26) #13
  call void @exit(i32 noundef 1) #14
  unreachable

28:                                               ; preds = %17
  %29 = load i32, ptr %8, align 4, !tbaa !8
  %30 = load i32, ptr %6, align 4, !tbaa !8
  %31 = icmp sge i32 %29, %30
  br i1 %31, label %32, label %38

32:                                               ; preds = %28
  %33 = load ptr, ptr @stderr, align 8, !tbaa !54
  %34 = load ptr, ptr %7, align 8, !tbaa !3
  %35 = load i32, ptr %6, align 4, !tbaa !8
  %36 = sext i32 %35 to i64
  %37 = call i32 (ptr, ptr, ...) @fprintf(ptr noundef %33, ptr noundef @.str.38, ptr noundef %34, i64 noundef %36) #13
  call void @exit(i32 noundef 1) #14
  unreachable

38:                                               ; preds = %28
  %39 = load ptr, ptr %5, align 8, !tbaa !3
  %40 = load ptr, ptr %7, align 8, !tbaa !3
  %41 = load i32, ptr %8, align 4, !tbaa !8
  %42 = sext i32 %41 to i64
  call void @llvm.memcpy.p0.p0.i64(ptr align 1 %39, ptr align 1 %40, i64 %42, i1 false)
  %43 = load ptr, ptr %5, align 8, !tbaa !3
  %44 = load i32, ptr %8, align 4, !tbaa !8
  %45 = sext i32 %44 to i64
  %46 = getelementptr inbounds i8, ptr %43, i64 %45
  store i8 0, ptr %46, align 1, !tbaa !32
  call void @llvm.lifetime.end.p0(i64 4, ptr %8) #13
  call void @llvm.lifetime.end.p0(i64 8, ptr %7) #13
  ret void
}