; Function Attrs: mustprogress uwtable
define internal fastcc void @_ZL18extractPackageNamePKcPci(ptr noundef %0, ptr noundef nonnull writeonly captures(none) %1) unnamed_addr #13 {
  %3 = tail call ptr @findBasename(ptr noundef %0)
  %4 = tail call i64 @strlen(ptr noundef nonnull dereferenceable(1) %3) #24
  %5 = trunc i64 %4 to i32
  %6 = icmp slt i32 %5, 5
  br i1 %6, label %12, label %7

7:                                                ; preds = %2
  %8 = add i64 %4, 4294967292
  %9 = and i64 %8, 4294967295
  %10 = getelementptr inbounds nuw i8, ptr %3, i64 %9
  %11 = tail call i32 @strcmp(ptr noundef nonnull dereferenceable(1) %10, ptr noundef nonnull dereferenceable(5) @.str.36) #24
  %.not = icmp eq i32 %11, 0
  br i1 %.not, label %15, label %12

12:                                               ; preds = %7, %2
  %13 = load ptr, ptr @stderr, align 8, !tbaa !36
  %14 = tail call i32 (ptr, ptr, ...) @fprintf(ptr noundef %13, ptr noundef nonnull @.str.37, ptr noundef nonnull %3) #25
  tail call void @exit(i32 noundef 1) #26
  unreachable

15:                                               ; preds = %7
  %16 = icmp samesign ugt i32 %5, 67
  br i1 %16, label %17, label %20

17:                                               ; preds = %15
  %18 = load ptr, ptr @stderr, align 8, !tbaa !36
  %19 = tail call i32 (ptr, ptr, ...) @fprintf(ptr noundef %18, ptr noundef nonnull @.str.38, ptr noundef nonnull %3, i64 noundef 64) #25
  tail call void @exit(i32 noundef 1) #26
  unreachable

20:                                               ; preds = %15
  tail call void @llvm.memcpy.p0.p0.i64(ptr nonnull align 1 %1, ptr nonnull align 1 %3, i64 %9, i1 false)
  %21 = getelementptr inbounds nuw i8, ptr %1, i64 %9
  store i8 0, ptr %21, align 1, !tbaa !19
  ret void
}